target datalayout = "e-m:e-p270:32:32-p271:32:32-p272:64:64-i64:64-i128:128-f80:128-n8:16:32:64-S128"
target triple = "x86_64-pc-linux-gnu"

%struct.http2_session_data = type { ptr, ptr, ptr, ptr }

@stderr = external global ptr, align 8
@.str.9 = private unnamed_addr constant [11 x i8] c"Connected\0A\00", align 1
@.str.10 = private unnamed_addr constant [3 x i8] c"h2\00", align 1
@.str.11 = private unnamed_addr constant [22 x i8] c"h2 is not negotiated\0A\00", align 1
@.str.12 = private unnamed_addr constant [34 x i8] c"Disconnected from the remote host\00", align 1
@.str.13 = private unnamed_addr constant [14 x i8] c"Network error\00", align 1
@.str.14 = private unnamed_addr constant [8 x i8] c"Timeout\00", align 1

; Function Attrs: nounwind uwtable
define internal void @eventcb(ptr noundef %0, i16 noundef signext %1, ptr noundef %2) #0 {
  %4 = alloca ptr, align 8
  %5 = alloca i16, align 2
  %6 = alloca ptr, align 8
  %7 = alloca ptr, align 8
  %8 = alloca i32, align 4
  %9 = alloca i32, align 4
  %10 = alloca ptr, align 8
  %11 = alloca i32, align 4
  %12 = alloca ptr, align 8
  %13 = alloca i32, align 4
  store ptr %0, ptr %4, align 8, !tbaa !50
  store i16 %1, ptr %5, align 2, !tbaa !23
  store ptr %2, ptr %6, align 8, !tbaa !29
  call void @llvm.lifetime.start.p0(i64 8, ptr %7) #10
  %14 = load ptr, ptr %6, align 8, !tbaa !29
  store ptr %14, ptr %7, align 8, !tbaa !29
  %15 = load i16, ptr %5, align 2, !tbaa !23
  %16 = sext i16 %15 to i32
  %17 = and i32 %16, 128
  %18 = icmp ne i32 %17, 0
  br i1 %18, label %19, label %59

19:                                               ; preds = %3
  call void @llvm.lifetime.start.p0(i64 4, ptr %8) #10
  %20 = load ptr, ptr %4, align 8, !tbaa !50
  %21 = call i32 @bufferevent_getfd(ptr noundef %20)
  store i32 %21, ptr %8, align 4, !tbaa !4
  call void @llvm.lifetime.start.p0(i64 4, ptr %9) #10
  store i32 1, ptr %9, align 4, !tbaa !4
  call void @llvm.lifetime.start.p0(i64 8, ptr %10) #10
  store ptr null, ptr %10, align 8, !tbaa !15
  call void @llvm.lifetime.start.p0(i64 4, ptr %11) #10
  store i32 0, ptr %11, align 4, !tbaa !4
  call void @llvm.lifetime.start.p0(i64 8, ptr %12) #10
  %22 = load ptr, ptr @stderr, align 8, !tbaa !12
  %23 = call i32 (ptr, ptr, ...) @fprintf(ptr noundef %22, ptr noundef @.str.9) #10
  %24 = load ptr, ptr %7, align 8, !tbaa !29
  %25 = getelementptr inbounds nuw %struct.http2_session_data, ptr %24, i32 0, i32 2
  %26 = load ptr, ptr %25, align 8, !tbaa !51
  %27 = call ptr @bufferevent_openssl_get_ssl(ptr noundef %26)
  store ptr %27, ptr %12, align 8, !tbaa !48
  %28 = load ptr, ptr %10, align 8, !tbaa !15
  %29 = icmp eq ptr %28, null
  br i1 %29, label %30, label %32

30:                                               ; preds = %19
  %31 = load ptr, ptr %12, align 8, !tbaa !48
  call void @SSL_get0_alpn_selected(ptr noundef %31, ptr noundef %10, ptr noundef %11)
  br label %32

32:                                               ; preds = %30, %19
  %33 = load ptr, ptr %10, align 8, !tbaa !15
  %34 = icmp eq ptr %33, null
  br i1 %34, label %42, label %35

35:                                               ; preds = %32
  %36 = load i32, ptr %11, align 4, !tbaa !4
  %37 = icmp ne i32 %36, 2
  br i1 %37, label %42, label %38

38:                                               ; preds = %35
  %39 = load ptr, ptr %10, align 8, !tbaa !15
  %40 = call i32 @memcmp(ptr noundef @.str.10, ptr noundef %39, i64 noundef 2) #12
  %41 = icmp ne i32 %40, 0
  br i1 %41, label %42, label %46

42:                                               ; preds = %38, %35, %32
  %43 = load ptr, ptr @stderr, align 8, !tbaa !12
  %44 = call i32 (ptr, ptr, ...) @fprintf(ptr noundef %43, ptr noundef @.str.11) #10
  %45 = load ptr, ptr %7, align 8, !tbaa !29
  call void @delete_http2_session_data(ptr noundef %45)
  store i32 1, ptr %13, align 4
  br label %58

46:                                               ; preds = %38
  %47 = load i32, ptr %8, align 4, !tbaa !4
  %48 = call i32 @setsockopt(i32 noundef %47, i32 noundef 6, i32 noundef 1, ptr noundef %9, i32 noundef 4) #10
  %49 = load ptr, ptr %7, align 8, !tbaa !29
  call void @initialize_nghttp2_session(ptr noundef %49)
  %50 = load ptr, ptr %7, align 8, !tbaa !29
  call void @send_client_connection_header(ptr noundef %50)
  %51 = load ptr, ptr %7, align 8, !tbaa !29
  call void @submit_request(ptr noundef %51)
  %52 = load ptr, ptr %7, align 8, !tbaa !29
  %53 = call i32 @session_send(ptr noundef %52)
  %54 = icmp ne i32 %53, 0
  br i1 %54, label %55, label %57

55:                                               ; preds = %46
  %56 = load ptr, ptr %7, align 8, !tbaa !29
  call void @delete_http2_session_data(ptr noundef %56)
  br label %57

57:                                               ; preds = %55, %46
  store i32 1, ptr %13, align 4
  br label %58

58:                                               ; preds = %57, %42
  call void @llvm.lifetime.end.p0(i64 8, ptr %12) #10
  call void @llvm.lifetime.end.p0(i64 4, ptr %11) #10
  call void @llvm.lifetime.end.p0(i64 8, ptr %10) #10
  call void @llvm.lifetime.end.p0(i64 4, ptr %9) #10
  call void @llvm.lifetime.end.p0(i64 4, ptr %8) #10
  br label %81

59:                                               ; preds = %3
  %60 = load i16, ptr %5, align 2, !tbaa !23
  %61 = sext i16 %60 to i32
  %62 = and i32 %61, 16
  %63 = icmp ne i32 %62, 0
  br i1 %63, label %64, label %65

64:                                               ; preds = %59
  call void (ptr, ...) @warnx(ptr noundef @.str.12)
  br label %79

65:                                               ; preds = %59
  %66 = load i16, ptr %5, align 2, !tbaa !23
  %67 = sext i16 %66 to i32
  %68 = and i32 %67, 32
  %69 = icmp ne i32 %68, 0
  br i1 %69, label %70, label %71

70:                                               ; preds = %65
  call void (ptr, ...) @warnx(ptr noundef @.str.13)
  br label %78

71:                                               ; preds = %65
  %72 = load i16, ptr %5, align 2, !tbaa !23
  %73 = sext i16 %72 to i32
  %74 = and i32 %73, 64
  %75 = icmp ne i32 %74, 0
  br i1 %75, label %76, label %77

76:                                               ; preds = %71
  call void (ptr, ...) @warnx(ptr noundef @.str.14)
  br label %77

77:                                               ; preds = %76, %71
  br label %78

78:                                               ; preds = %77, %70
  br label %79

79:                                               ; preds = %78, %64
  %80 = load ptr, ptr %7, align 8, !tbaa !29
  call void @delete_http2_session_data(ptr noundef %80)
  store i32 0, ptr %13, align 4
  br label %81

81:                                               ; preds = %79, %58
  call void @llvm.lifetime.end.p0(i64 8, ptr %7) #10
  %82 = load i32, ptr %13, align 4
  switch i32 %82, label %84 [
    i32 0, label %83
    i32 1, label %83
  ]

83:                                               ; preds = %81, %81
  ret void

84:                                               ; preds = %81
  unreachable
}