; Function Attrs: nounwind uwtable
define internal void @eventcb(ptr noundef %0, i16 noundef signext %1, ptr noundef %2) #0 {
  %4 = alloca i32, align 4
  %5 = alloca ptr, align 8
  %6 = alloca i32, align 4
  %7 = and i16 %1, 128
  %.not = icmp eq i16 %7, 0
  br i1 %.not, label %25, label %8

8:                                                ; preds = %3
  %9 = tail call i32 @bufferevent_getfd(ptr noundef %0) #18
  call void @llvm.lifetime.start.p0(i64 4, ptr nonnull %4) #18
  store i32 1, ptr %4, align 4, !tbaa !38
  call void @llvm.lifetime.start.p0(i64 8, ptr nonnull %5) #18
  store ptr null, ptr %5, align 8, !tbaa !10
  call void @llvm.lifetime.start.p0(i64 4, ptr nonnull %6) #18
  store i32 0, ptr %6, align 4, !tbaa !38
  %10 = load ptr, ptr @stderr, align 8, !tbaa !4
  %11 = tail call i64 @fwrite(ptr nonnull @.str.9, i64 10, i64 1, ptr %10) #19
  %12 = getelementptr inbounds nuw i8, ptr %2, i64 16
  %13 = load ptr, ptr %12, align 8, !tbaa !36
  %14 = tail call ptr @bufferevent_openssl_get_ssl(ptr noundef %13) #18
  call void @SSL_get0_alpn_selected(ptr noundef %14, ptr noundef nonnull %5, ptr noundef nonnull %6) #18
  %.pre = load ptr, ptr %5, align 8, !tbaa !10
  %.pre22 = load i32, ptr %6, align 4
  %15 = icmp eq ptr %.pre, null
  %16 = icmp ne i32 %.pre22, 2
  %or.cond = select i1 %15, i1 true, i1 %16
  br i1 %or.cond, label %18, label %17

17:                                               ; preds = %8
  %bcmp = call i32 @bcmp(ptr noundef nonnull dereferenceable(2) @.str.10, ptr noundef nonnull dereferenceable(2) %.pre, i64 2)
  %.not19 = icmp eq i32 %bcmp, 0
  br i1 %.not19, label %21, label %18

18:                                               ; preds = %17, %8
  %19 = load ptr, ptr @stderr, align 8, !tbaa !4
  %20 = call i64 @fwrite(ptr nonnull @.str.11, i64 21, i64 1, ptr %19) #19
  br label %.sink.split

21:                                               ; preds = %17
  %22 = call i32 @setsockopt(i32 noundef %9, i32 noundef 6, i32 noundef 1, ptr noundef nonnull %4, i32 noundef 4) #18
  call fastcc void @initialize_nghttp2_session(ptr noundef nonnull %2)
  %.val = load ptr, ptr %2, align 8, !tbaa !37
  call fastcc void @send_client_connection_header(ptr %.val)
  call fastcc void @submit_request(ptr noundef nonnull %2)
  %.val21 = load ptr, ptr %2, align 8, !tbaa !37
  %23 = call fastcc i32 @session_send(ptr %.val21)
  %.not20 = icmp eq i32 %23, 0
  br i1 %.not20, label %24, label %.sink.split

.sink.split:                                      ; preds = %21, %18
  call fastcc void @delete_http2_session_data(ptr noundef nonnull %2)
  br label %24

24:                                               ; preds = %.sink.split, %21
  call void @llvm.lifetime.end.p0(i64 4, ptr nonnull %6) #18
  call void @llvm.lifetime.end.p0(i64 8, ptr nonnull %5) #18
  call void @llvm.lifetime.end.p0(i64 4, ptr nonnull %4) #18
  br label %32

25:                                               ; preds = %3
  %26 = and i16 %1, 16
  %.not16 = icmp eq i16 %26, 0
  br i1 %.not16, label %27, label %.sink.split23

27:                                               ; preds = %25
  %28 = and i16 %1, 32
  %.not17 = icmp eq i16 %28, 0
  br i1 %.not17, label %29, label %.sink.split23

29:                                               ; preds = %27
  %30 = and i16 %1, 64
  %.not18 = icmp eq i16 %30, 0
  br i1 %.not18, label %31, label %.sink.split23

.sink.split23:                                    ; preds = %29, %27, %25
  %.str.13.sink = phi ptr [ @.str.12, %25 ], [ @.str.13, %27 ], [ @.str.14, %29 ]
  tail call void (ptr, ...) @warnx(ptr noundef nonnull %.str.13.sink) #18
  br label %31

31:                                               ; preds = %.sink.split23, %29
  tail call fastcc void @delete_http2_session_data(ptr noundef %2)
  br label %32

32:                                               ; preds = %31, %24
  ret void
}